target datalayout = "e-m:e-p270:32:32-p271:32:32-p272:64:64-i64:64-i128:128-f80:128-n8:16:32:64-S128"
target triple = "x86_64-unknown-linux-gnu"

%struct.QTailQLink = type { ptr, ptr }
%struct.MSGUID = type { i32, i16, i16, [8 x i8] }
%struct.BDRVVHDXState = type <{ %struct.CoMutex, i32, [4 x i8], [2 x ptr], %struct.VHDXRegionTableHeader, %struct.VHDXRegionTableEntry, %struct.VHDXRegionTableEntry, %struct.VHDXMetadataTableHeader, %struct.VHDXMetadataEntries, %struct.VHDXFileParameters, [2 x i8], i32, i32, i32, i32, [4 x i8], i64, i32, i32, i64, i32, i32, i32, [4 x i8], ptr, i64, i8, %struct.MSGUID, [7 x i8], %struct.VHDXLogEntries, %struct.VHDXParentLocatorHeader, [4 x i8], ptr, ptr, i8, [7 x i8], %struct.anon.1 }>
%struct.CoMutex = type { i32, ptr, %struct.anon.0, %struct.anon.0, i32, i32, ptr }
%struct.anon.0 = type { ptr }
%struct.VHDXRegionTableHeader = type { i32, i32, i32, i32 }
%struct.VHDXRegionTableEntry = type { %struct.MSGUID, i64, i32, i32 }
%struct.VHDXMetadataTableHeader = type { i64, i16, i16, [5 x i32] }
%struct.VHDXMetadataEntries = type <{ %struct.VHDXMetadataTableEntry, %struct.VHDXMetadataTableEntry, %struct.VHDXMetadataTableEntry, %struct.VHDXMetadataTableEntry, %struct.VHDXMetadataTableEntry, %struct.VHDXMetadataTableEntry, i16 }>
%struct.VHDXMetadataTableEntry = type { %struct.MSGUID, i32, i32, i32, i32 }
%struct.VHDXFileParameters = type { i32, i32 }
%struct.VHDXLogEntries = type { i64, i64, i32, i32, ptr, ptr, i64, i32 }
%struct.VHDXParentLocatorHeader = type { %struct.MSGUID, i16, i16 }
%struct.anon.1 = type { ptr }
%struct.BlockDriverState = type { i32, i8, i8, i8, i8, i8, ptr, ptr, ptr, %struct.anon.2, i8, [4096 x i8], [4096 x i8], [4096 x i8], [16 x i8], ptr, [4096 x i8], %struct.BlockLimits, i32, i32, i32, i32, [32 x i8], %union.anon.3, %union.anon.4, %union.anon.5, i32, [16 x %struct.anon.6], ptr, %struct.anon.7, ptr, ptr, %struct.anon.8, ptr, ptr, i32, ptr, i64, i64, %struct.QemuMutex, %struct.anon.9, %struct.Stat64, i32, i32, i32, i32, i32, i32, %struct.QemuMutex, %struct.anon.10, %struct.CoQueue, i8, i32, i8, %struct.CoMutex, ptr, ptr }
%struct.anon.2 = type { ptr }
%struct.BlockLimits = type { i32, i64, i32, i64, i32, i32, i32, i64, i32, i64, i64, i32, i8, i32, i32, i32, i32, i32, i32, i32 }
%union.anon.3 = type { %struct.QTailQLink }
%union.anon.4 = type { %struct.QTailQLink }
%union.anon.5 = type { %struct.QTailQLink }
%struct.anon.6 = type { ptr }
%struct.anon.7 = type { ptr }
%struct.anon.8 = type { ptr }
%struct.anon.9 = type { ptr }
%struct.Stat64 = type { i64 }
%struct.QemuMutex = type { %union.pthread_mutex_t, i8 }
%union.pthread_mutex_t = type { %struct.__pthread_mutex_s }
%struct.__pthread_mutex_s = type { i32, i32, i32, i32, i32, i16, i16, %struct.__pthread_internal_list }
%struct.__pthread_internal_list = type { ptr, ptr }
%struct.anon.10 = type { ptr }
%struct.CoQueue = type { %struct.anon.11 }
%struct.anon.11 = type { ptr, ptr }
%struct.VHDXRegionEntry = type { i64, i64, %struct.anon.16 }
%struct.anon.16 = type { ptr, ptr }

; Function Attrs: nounwind sspstrong uwtable
define internal void @vhdx_region_unregister_all(ptr noundef %s) #0 {
entry:
  %s.addr = alloca ptr, align 8
  %r = alloca ptr, align 8
  %r_next = alloca ptr, align 8
  store ptr %s, ptr %s.addr, align 8
  %0 = load ptr, ptr %s.addr, align 8
  %regions = getelementptr inbounds %struct.BDRVVHDXState, ptr %0, i32 0, i32 36
  %lh_first = getelementptr inbounds %struct.anon.1, ptr %regions, i32 0, i32 0
  %1 = load ptr, ptr %lh_first, align 8
  store ptr %1, ptr %r, align 8
  br label %for.cond

for.cond:                                         ; preds = %for.inc, %entry
  %2 = load ptr, ptr %r, align 8
  %tobool = icmp ne ptr %2, null
  br i1 %tobool, label %land.rhs, label %land.end

land.rhs:                                         ; preds = %for.cond
  %3 = load ptr, ptr %r, align 8
  %entries = getelementptr inbounds %struct.VHDXRegionEntry, ptr %3, i32 0, i32 2
  %le_next = getelementptr inbounds %struct.anon.16, ptr %entries, i32 0, i32 0
  %4 = load ptr, ptr %le_next, align 8
  store ptr %4, ptr %r_next, align 8
  br label %land.end

land.end:                                         ; preds = %land.rhs, %for.cond
  %5 = phi i1 [ false, %for.cond ], [ true, %land.rhs ]
  br i1 %5, label %for.body, label %for.end

for.body:                                         ; preds = %land.end
  br label %do.body

do.body:                                          ; preds = %for.body
  %6 = load ptr, ptr %r, align 8
  %entries1 = getelementptr inbounds %struct.VHDXRegionEntry, ptr %6, i32 0, i32 2
  %le_next2 = getelementptr inbounds %struct.anon.16, ptr %entries1, i32 0, i32 0
  %7 = load ptr, ptr %le_next2, align 8
  %cmp = icmp ne ptr %7, null
  br i1 %cmp, label %if.then, label %if.end

if.then:                                          ; preds = %do.body
  %8 = load ptr, ptr %r, align 8
  %entries3 = getelementptr inbounds %struct.VHDXRegionEntry, ptr %8, i32 0, i32 2
  %le_prev = getelementptr inbounds %struct.anon.16, ptr %entries3, i32 0, i32 1
  %9 = load ptr, ptr %le_prev, align 8
  %10 = load ptr, ptr %r, align 8
  %entries4 = getelementptr inbounds %struct.VHDXRegionEntry, ptr %10, i32 0, i32 2
  %le_next5 = getelementptr inbounds %struct.anon.16, ptr %entries4, i32 0, i32 0
  %11 = load ptr, ptr %le_next5, align 8
  %entries6 = getelementptr inbounds %struct.VHDXRegionEntry, ptr %11, i32 0, i32 2
  %le_prev7 = getelementptr inbounds %struct.anon.16, ptr %entries6, i32 0, i32 1
  store ptr %9, ptr %le_prev7, align 8
  br label %if.end

if.end:                                           ; preds = %if.then, %do.body
  %12 = load ptr, ptr %r, align 8
  %entries8 = getelementptr inbounds %struct.VHDXRegionEntry, ptr %12, i32 0, i32 2
  %le_next9 = getelementptr inbounds %struct.anon.16, ptr %entries8, i32 0, i32 0
  %13 = load ptr, ptr %le_next9, align 8
  %14 = load ptr, ptr %r, align 8
  %entries10 = getelementptr inbounds %struct.VHDXRegionEntry, ptr %14, i32 0, i32 2
  %le_prev11 = getelementptr inbounds %struct.anon.16, ptr %entries10, i32 0, i32 1
  %15 = load ptr, ptr %le_prev11, align 8
  store ptr %13, ptr %15, align 8
  %16 = load ptr, ptr %r, align 8
  %entries12 = getelementptr inbounds %struct.VHDXRegionEntry, ptr %16, i32 0, i32 2
  %le_next13 = getelementptr inbounds %struct.anon.16, ptr %entries12, i32 0, i32 0
  store ptr null, ptr %le_next13, align 8
  %17 = load ptr, ptr %r, align 8
  %entries14 = getelementptr inbounds %struct.VHDXRegionEntry, ptr %17, i32 0, i32 2
  %le_prev15 = getelementptr inbounds %struct.anon.16, ptr %entries14, i32 0, i32 1
  store ptr null, ptr %le_prev15, align 8
  br label %do.end

do.end:                                           ; preds = %if.end
  %18 = load ptr, ptr %r, align 8
  call void @g_free(ptr noundef %18)
  br label %for.inc

for.inc:                                          ; preds = %do.end
  %19 = load ptr, ptr %r_next, align 8
  store ptr %19, ptr %r, align 8
  br label %for.cond, !llvm.loop !13

for.end:                                          ; preds = %land.end
  ret void
}

; Function Attrs: nounwind sspstrong uwtable
define internal void @vhdx_close(ptr noundef %bs) #0 {
entry:
  %bs.addr = alloca ptr, align 8
  %s = alloca ptr, align 8
  store ptr %bs, ptr %bs.addr, align 8
  %0 = load ptr, ptr %bs.addr, align 8
  %opaque = getelementptr inbounds %struct.BlockDriverState, ptr %0, i32 0, i32 7
  %1 = load ptr, ptr %opaque, align 8
  store ptr %1, ptr %s, align 8
  %2 = load ptr, ptr %s, align 8
  %headers = getelementptr inbounds %struct.BDRVVHDXState, ptr %2, i32 0, i32 3
  %arrayidx = getelementptr [2 x ptr], ptr %headers, i64 0, i64 0
  %3 = load ptr, ptr %arrayidx, align 8
  call void @qemu_vfree(ptr noundef %3)
  %4 = load ptr, ptr %s, align 8
  %headers1 = getelementptr inbounds %struct.BDRVVHDXState, ptr %4, i32 0, i32 3
  %arrayidx2 = getelementptr [2 x ptr], ptr %headers1, i64 0, i64 0
  store ptr null, ptr %arrayidx2, align 8
  %5 = load ptr, ptr %s, align 8
  %headers3 = getelementptr inbounds %struct.BDRVVHDXState, ptr %5, i32 0, i32 3
  %arrayidx4 = getelementptr [2 x ptr], ptr %headers3, i64 0, i64 1
  %6 = load ptr, ptr %arrayidx4, align 8
  call void @qemu_vfree(ptr noundef %6)
  %7 = load ptr, ptr %s, align 8
  %headers5 = getelementptr inbounds %struct.BDRVVHDXState, ptr %7, i32 0, i32 3
  %arrayidx6 = getelementptr [2 x ptr], ptr %headers5, i64 0, i64 1
  store ptr null, ptr %arrayidx6, align 8
  %8 = load ptr, ptr %s, align 8
  %bat = getelementptr inbounds %struct.BDRVVHDXState, ptr %8, i32 0, i32 24
  %9 = load ptr, ptr %bat, align 8
  call void @qemu_vfree(ptr noundef %9)
  %10 = load ptr, ptr %s, align 8
  %bat7 = getelementptr inbounds %struct.BDRVVHDXState, ptr %10, i32 0, i32 24
  store ptr null, ptr %bat7, align 8
  %11 = load ptr, ptr %s, align 8
  %parent_entries = getelementptr inbounds %struct.BDRVVHDXState, ptr %11, i32 0, i32 32
  %12 = load ptr, ptr %parent_entries, align 8
  call void @qemu_vfree(ptr noundef %12)
  %13 = load ptr, ptr %s, align 8
  %parent_entries8 = getelementptr inbounds %struct.BDRVVHDXState, ptr %13, i32 0, i32 32
  store ptr null, ptr %parent_entries8, align 8
  %14 = load ptr, ptr %s, align 8
  %migration_blocker = getelementptr inbounds %struct.BDRVVHDXState, ptr %14, i32 0, i32 33
  call void @migrate_del_blocker(ptr noundef %migration_blocker)
  %15 = load ptr, ptr %s, align 8
  %log = getelementptr inbounds %struct.BDRVVHDXState, ptr %15, i32 0, i32 29
  %hdr = getelementptr inbounds %struct.VHDXLogEntries, ptr %log, i32 0, i32 4
  %16 = load ptr, ptr %hdr, align 8
  call void @qemu_vfree(ptr noundef %16)
  %17 = load ptr, ptr %s, align 8
  %log9 = getelementptr inbounds %struct.BDRVVHDXState, ptr %17, i32 0, i32 29
  %hdr10 = getelementptr inbounds %struct.VHDXLogEntries, ptr %log9, i32 0, i32 4
  store ptr null, ptr %hdr10, align 8
  %18 = load ptr, ptr %s, align 8
  call void @vhdx_region_unregister_all(ptr noundef %18)
  ret void
}