; Function Attrs: nounwind sspstrong uwtable
define internal void @vhdx_close(ptr noundef readonly captures(none) %bs) #0 {
entry:
  %opaque = getelementptr inbounds nuw i8, ptr %bs, i64 24
  %0 = load ptr, ptr %opaque, align 8
  %headers = getelementptr inbounds nuw i8, ptr %0, i64 56
  %1 = load ptr, ptr %headers, align 8
  tail call void @qemu_vfree(ptr noundef %1) #17
  store ptr null, ptr %headers, align 8
  %arrayidx4 = getelementptr i8, ptr %0, i64 64
  %2 = load ptr, ptr %arrayidx4, align 8
  tail call void @qemu_vfree(ptr noundef %2) #17
  store ptr null, ptr %arrayidx4, align 8
  %bat = getelementptr inbounds nuw i8, ptr %0, i64 448
  %3 = load ptr, ptr %bat, align 8
  tail call void @qemu_vfree(ptr noundef %3) #17
  store ptr null, ptr %bat, align 8
  %parent_entries = getelementptr inbounds nuw i8, ptr %0, i64 568
  %4 = load ptr, ptr %parent_entries, align 8
  tail call void @qemu_vfree(ptr noundef %4) #17
  store ptr null, ptr %parent_entries, align 8
  %migration_blocker = getelementptr inbounds nuw i8, ptr %0, i64 576
  tail call void @migrate_del_blocker(ptr noundef nonnull %migration_blocker) #17
  %hdr = getelementptr inbounds nuw i8, ptr %0, i64 512
  %5 = load ptr, ptr %hdr, align 8
  tail call void @qemu_vfree(ptr noundef %5) #17
  store ptr null, ptr %hdr, align 8
  %6 = getelementptr i8, ptr %0, i64 592
  %.val = load ptr, ptr %6, align 8
  %tobool.not1.i = icmp eq ptr %.val, null
  br i1 %tobool.not1.i, label %vhdx_region_unregister_all.exit, label %land.rhs.i.preheader

land.rhs.i.preheader:                             ; preds = %entry
  %entries.i12 = getelementptr inbounds nuw i8, ptr %.val, i64 16
  %7 = load ptr, ptr %entries.i12, align 8
  %cmp.not.i13 = icmp eq ptr %7, null
  %le_prev11.phi.trans.insert.i14 = getelementptr inbounds nuw i8, ptr %.val, i64 24
  %.pre3.i15 = load ptr, ptr %le_prev11.phi.trans.insert.i14, align 8
  br i1 %cmp.not.i13, label %for.end.critedge.i, label %if.then.i

if.then.i:                                        ; preds = %land.rhs.i.preheader, %if.then.i
  %.pre3.i18 = phi ptr [ %.pre3.i, %if.then.i ], [ %.pre3.i15, %land.rhs.i.preheader ]
  %8 = phi ptr [ %9, %if.then.i ], [ %7, %land.rhs.i.preheader ]
  %entries.i17 = phi ptr [ %entries.i, %if.then.i ], [ %entries.i12, %land.rhs.i.preheader ]
  %r.02.i16 = phi ptr [ %8, %if.then.i ], [ %.val, %land.rhs.i.preheader ]
  %le_prev7.i = getelementptr inbounds nuw i8, ptr %8, i64 24
  store ptr %.pre3.i18, ptr %le_prev7.i, align 8
  %.pre.i = load ptr, ptr %entries.i17, align 8
  store ptr %.pre.i, ptr %.pre3.i18, align 8
  tail call void @llvm.memset.p0.i64(ptr noundef nonnull align 8 dereferenceable(16) %entries.i17, i8 0, i64 16, i1 false)
  tail call void @g_free(ptr noundef nonnull %r.02.i16) #17
  %entries.i = getelementptr inbounds nuw i8, ptr %8, i64 16
  %9 = load ptr, ptr %entries.i, align 8
  %cmp.not.i = icmp eq ptr %9, null
  %.pre3.i = load ptr, ptr %le_prev7.i, align 8
  br i1 %cmp.not.i, label %for.end.critedge.i, label %if.then.i, !llvm.loop !9

for.end.critedge.i:                               ; preds = %if.then.i, %land.rhs.i.preheader
  %r.02.i.lcssa = phi ptr [ %.val, %land.rhs.i.preheader ], [ %8, %if.then.i ]
  %entries.i.lcssa = phi ptr [ %entries.i12, %land.rhs.i.preheader ], [ %entries.i, %if.then.i ]
  %.pre3.i.lcssa = phi ptr [ %.pre3.i15, %land.rhs.i.preheader ], [ %.pre3.i, %if.then.i ]
  store ptr null, ptr %.pre3.i.lcssa, align 8
  tail call void @llvm.memset.p0.i64(ptr noundef nonnull align 8 dereferenceable(16) %entries.i.lcssa, i8 0, i64 16, i1 false)
  tail call void @g_free(ptr noundef nonnull %r.02.i.lcssa) #17
  br label %vhdx_region_unregister_all.exit

vhdx_region_unregister_all.exit:                  ; preds = %entry, %for.end.critedge.i
  ret void
}